; Function Attrs: nounwind uwtable
define internal fastcc void @mov_write_av3c_tag(ptr noundef %0, ptr noundef readonly captures(none) %1) unnamed_addr #0 {
  %3 = tail call i64 @avio_seek(ptr noundef %0, i64 noundef 0, i32 noundef 1) #16
  tail call void @avio_wb32(ptr noundef %0, i32 noundef 0) #16
  tail call void @avio_wl32(ptr noundef %0, i32 noundef 1664317025) #16
  %4 = getelementptr inbounds nuw i8, ptr %1, i64 128
  %5 = load ptr, ptr %4, align 8, !tbaa !97
  %6 = getelementptr inbounds nuw i8, ptr %1, i64 120
  %7 = load i32, ptr %6, align 8, !tbaa !94
  %8 = icmp slt i32 %7, 4
  br i1 %8, label %mov_write_av3c.exit, label %9

9:                                                ; preds = %2
  %10 = load i8, ptr %5, align 1, !tbaa !88
  %11 = icmp eq i8 %10, 1
  br i1 %11, label %12, label %13

12:                                               ; preds = %9
  tail call void @avio_write(ptr noundef %0, ptr noundef nonnull %5, i32 noundef %7) #16
  br label %mov_write_av3c.exit

13:                                               ; preds = %9
  tail call void @avio_w8(ptr noundef %0, i32 noundef 1) #16
  tail call void @avio_wb16(ptr noundef %0, i32 noundef %7) #16
  tail call void @avio_write(ptr noundef %0, ptr noundef nonnull %5, i32 noundef %7) #16
  tail call void @avio_w8(ptr noundef %0, i32 noundef 252) #16
  br label %mov_write_av3c.exit

mov_write_av3c.exit:                              ; preds = %2, %12, %13
  %14 = tail call i64 @avio_seek(ptr noundef %0, i64 noundef 0, i32 noundef 1) #16
  %15 = tail call i64 @avio_seek(ptr noundef %0, i64 noundef %3, i32 noundef 0) #16
  %16 = sub nsw i64 %14, %3
  %17 = trunc i64 %16 to i32
  tail call void @avio_wb32(ptr noundef %0, i32 noundef %17) #16
  %18 = tail call i64 @avio_seek(ptr noundef %0, i64 noundef %14, i32 noundef 0) #16
  ret void
}